target datalayout = "e-m:e-p270:32:32-p271:32:32-p272:64:64-i64:64-i128:128-f80:128-n8:16:32:64-S128"
target triple = "x86_64-pc-linux-gnu"

%struct._zend_phpdbg_globals = type { [11 x %struct._zend_array], %struct._zend_array, %struct._zend_array, ptr, ptr, %struct.phpdbg_frame_t, i32, ptr, %struct.phpdbg_lexer_data, ptr, %struct.sigaction, i32, i64, %struct.phpdbg_btree, %struct.phpdbg_btree, %struct._zend_array, %struct._zend_array, %struct._zend_array, %struct._zend_array, ptr, ptr, i8, ptr, ptr, ptr, i64, ptr, %struct._zval_struct, i32, i32, i8, i8, ptr, ptr, ptr, %struct._zend_array, ptr, ptr, ptr, [3 x %struct.anon.8], ptr, %struct.anon.9, i64, [2 x ptr], [3 x ptr], ptr, i8, ptr, ptr, [500 x i8], i32, %struct.phpdbg_signal_safe_mem, ptr, i64, ptr, i64 }
%struct.phpdbg_frame_t = type { i32, ptr, ptr }
%struct.phpdbg_lexer_data = type { i32, ptr, ptr, ptr, ptr, i32 }
%struct.sigaction = type { %union.anon.2, %struct.__sigset_t, i32, ptr }
%union.anon.2 = type { ptr }
%struct.__sigset_t = type { [16 x i64] }
%struct.phpdbg_btree = type { i64, i64, i8, ptr }
%struct._zval_struct = type { %union._zend_value, %union.anon.4, %union.anon.7 }
%union._zend_value = type { i64 }
%union.anon.4 = type { i32 }
%union.anon.7 = type { i32 }
%struct._zend_array = type { %struct._zend_refcounted_h, %union.anon.0, i32, %union.anon.1, i32, i32, i32, i32, i64, ptr }
%struct._zend_refcounted_h = type { i32, %union.anon }
%union.anon = type { i32 }
%union.anon.0 = type { i32 }
%union.anon.1 = type { ptr }
%struct.anon.8 = type { i32 }
%struct.anon.9 = type { i8, i32, i32, ptr, i32 }
%struct.phpdbg_signal_safe_mem = type { ptr, i8, ptr, ptr }
%struct._zend_executor_globals = type { %struct._zval_struct, %struct._zval_struct, [32 x ptr], ptr, ptr, %struct._zend_array, %struct._zend_array, ptr, i32, i32, ptr, ptr, ptr, ptr, ptr, ptr, i64, ptr, ptr, i32, i32, i64, i32, i32, i32, i8, i8, %struct.zend_atomic_bool_s, %struct.zend_atomic_bool_s, ptr, i64, ptr, ptr, %struct._zend_array, %struct._zend_array, i32, i8, %struct._zval_struct, %struct._zval_struct, %struct._zend_stack, %struct._zend_stack, %struct._zend_stack, ptr, i32, i32, i64, ptr, ptr, ptr, %struct._zend_objects_store, ptr, ptr, ptr, [3 x %struct._zend_op], ptr, i8, i8, i64, i32, i32, ptr, [16 x %struct._HashTableIterator], ptr, %union._zend_function, %struct._zend_op, %struct._zend_array, i64, %struct.zend_get_gc_buffer, ptr, ptr, ptr, i64, i8, i32, ptr, ptr, i64, %struct._zend_call_stack, i64, i64, [6 x ptr] }
%struct.zend_atomic_bool_s = type { i8 }
%struct._zend_stack = type { i32, i32, i32, ptr }
%struct._zend_objects_store = type { ptr, i32, i32, i32 }
%struct._HashTableIterator = type { ptr, i32, i32 }
%union._zend_function = type { %struct._zend_op_array }
%struct._zend_op_array = type { i8, [3 x i8], i32, ptr, ptr, ptr, i32, i32, ptr, ptr, ptr, ptr, i32, i32, i32, i32, ptr, ptr, ptr, ptr, ptr, i32, i32, ptr, ptr, ptr, i32, i32, i32, i32, ptr, ptr, [6 x ptr] }
%struct._zend_op = type { ptr, %union._znode_op, %union._znode_op, %union._znode_op, i32, i32, i8, i8, i8, i8 }
%union._znode_op = type { i32 }
%struct.zend_get_gc_buffer = type { ptr, ptr, ptr }
%struct._zend_call_stack = type { ptr, i64 }
%struct._phpdbg_param = type { i32, i64, i64, %struct.anon.10, %struct.anon.11, ptr, i64, ptr, ptr }
%struct.anon.10 = type { ptr, i64 }
%struct.anon.11 = type { ptr, ptr }
%struct.__jmp_buf_tag = type { [8 x i64], i32, %struct.__sigset_t }

@phpdbg_globals = external global %struct._zend_phpdbg_globals, align 8
@.str.78 = private unnamed_addr constant [108 x i8] c"/home/dtcxzyw/WorkSpace/Projects/compilers/llvm-opt-benchmark/bench/php/php-src/sapi/phpdbg/phpdbg_prompt.c\00", align 1
@executor_globals = external global %struct._zend_executor_globals, align 8
@.str.133 = private unnamed_addr constant [3 x i8] c"%s\00", align 1
@.str.172 = private unnamed_addr constant [12 x i8] c"Not running\00", align 1

; Function Attrs: nounwind uwtable
define hidden i32 @phpdbg_interactive(i1 noundef zeroext %0, ptr noundef %1) #0 {
  %3 = alloca i8, align 1
  %4 = alloca ptr, align 8
  %5 = alloca i32, align 4
  %6 = alloca %struct._phpdbg_param, align 8
  %7 = alloca ptr, align 8
  %8 = alloca [1 x %struct.__jmp_buf_tag], align 16
  %9 = zext i1 %0 to i8
  store i8 %9, ptr %3, align 1
  store ptr %1, ptr %4, align 8
  store i32 0, ptr %5, align 4
  %10 = load i64, ptr getelementptr inbounds (%struct._zend_phpdbg_globals, ptr @phpdbg_globals, i32 0, i32 53), align 8
  %11 = or i64 %10, 134217728
  store i64 %11, ptr getelementptr inbounds (%struct._zend_phpdbg_globals, ptr @phpdbg_globals, i32 0, i32 53), align 8
  br label %12

12:                                               ; preds = %98, %2
  %13 = load i32, ptr %5, align 4
  %14 = icmp eq i32 %13, 0
  br i1 %14, label %18, label %15

15:                                               ; preds = %12
  %16 = load i32, ptr %5, align 4
  %17 = icmp eq i32 %16, -1
  br label %18

18:                                               ; preds = %15, %12
  %19 = phi i1 [ true, %12 ], [ %17, %15 ]
  br i1 %19, label %20, label %99

20:                                               ; preds = %18
  %21 = load i64, ptr getelementptr inbounds (%struct._zend_phpdbg_globals, ptr @phpdbg_globals, i32 0, i32 53), align 8
  %22 = and i64 %21, 327680
  %23 = icmp ne i64 %22, 0
  br i1 %23, label %24, label %25

24:                                               ; preds = %20
  call void @_zend_bailout(ptr noundef @.str.78, i32 noundef 1533) #17
  unreachable

25:                                               ; preds = %20
  %26 = load ptr, ptr %4, align 8
  %27 = icmp ne ptr %26, null
  br i1 %27, label %32, label %28

28:                                               ; preds = %25
  %29 = call ptr @phpdbg_read_input(ptr noundef null)
  store ptr %29, ptr %4, align 8
  %30 = icmp ne ptr %29, null
  br i1 %30, label %32, label %31

31:                                               ; preds = %28
  br label %99

32:                                               ; preds = %28, %25
  br label %33

33:                                               ; preds = %32
  %34 = getelementptr inbounds %struct._phpdbg_param, ptr %6, i32 0, i32 0
  store i32 9, ptr %34, align 8
  %35 = getelementptr inbounds %struct._phpdbg_param, ptr %6, i32 0, i32 2
  store i64 0, ptr %35, align 8
  %36 = getelementptr inbounds %struct._phpdbg_param, ptr %6, i32 0, i32 1
  store i64 0, ptr %36, align 8
  %37 = getelementptr inbounds %struct._phpdbg_param, ptr %6, i32 0, i32 3
  %38 = getelementptr inbounds %struct.anon.10, ptr %37, i32 0, i32 0
  store ptr null, ptr %38, align 8
  %39 = getelementptr inbounds %struct._phpdbg_param, ptr %6, i32 0, i32 3
  %40 = getelementptr inbounds %struct.anon.10, ptr %39, i32 0, i32 1
  store i64 0, ptr %40, align 8
  %41 = getelementptr inbounds %struct._phpdbg_param, ptr %6, i32 0, i32 4
  %42 = getelementptr inbounds %struct.anon.11, ptr %41, i32 0, i32 0
  store ptr null, ptr %42, align 8
  %43 = getelementptr inbounds %struct._phpdbg_param, ptr %6, i32 0, i32 4
  %44 = getelementptr inbounds %struct.anon.11, ptr %43, i32 0, i32 1
  store ptr null, ptr %44, align 8
  %45 = getelementptr inbounds %struct._phpdbg_param, ptr %6, i32 0, i32 5
  store ptr null, ptr %45, align 8
  %46 = getelementptr inbounds %struct._phpdbg_param, ptr %6, i32 0, i32 6
  store i64 0, ptr %46, align 8
  %47 = getelementptr inbounds %struct._phpdbg_param, ptr %6, i32 0, i32 7
  store ptr null, ptr %47, align 8
  %48 = getelementptr inbounds %struct._phpdbg_param, ptr %6, i32 0, i32 8
  store ptr null, ptr %48, align 8
  br label %49

49:                                               ; preds = %33
  %50 = load ptr, ptr %4, align 8
  %51 = call i32 @phpdbg_do_parse(ptr noundef %6, ptr noundef %50)
  %52 = icmp sle i32 %51, 0
  br i1 %52, label %53, label %98

53:                                               ; preds = %49
  call void @phpdbg_activate_err_buf(i1 noundef zeroext true)
  %54 = load ptr, ptr getelementptr inbounds (%struct._zend_executor_globals, ptr @executor_globals, i32 0, i32 7), align 8
  store ptr %54, ptr %7, align 8
  store ptr %8, ptr getelementptr inbounds (%struct._zend_executor_globals, ptr @executor_globals, i32 0, i32 7), align 8
  %55 = getelementptr inbounds [1 x %struct.__jmp_buf_tag], ptr %8, i64 0, i64 0
  %56 = call i32 @__sigsetjmp(ptr noundef %55, i32 noundef 0) #20
  %57 = icmp eq i32 %56, 0
  br i1 %57, label %58, label %62

58:                                               ; preds = %53
  %59 = load i8, ptr %3, align 1
  %60 = trunc i8 %59 to i1
  %61 = call i32 @phpdbg_stack_execute(ptr noundef %6, i1 noundef zeroext %60)
  store i32 %61, ptr %5, align 4
  br label %64

62:                                               ; preds = %53
  %63 = load ptr, ptr %7, align 8
  store ptr %63, ptr getelementptr inbounds (%struct._zend_executor_globals, ptr @executor_globals, i32 0, i32 7), align 8
  call void @phpdbg_stack_free(ptr noundef %6)
  call void @_zend_bailout(ptr noundef @.str.78, i32 noundef 1550) #17
  unreachable

64:                                               ; preds = %58
  %65 = load ptr, ptr %7, align 8
  store ptr %65, ptr getelementptr inbounds (%struct._zend_executor_globals, ptr @executor_globals, i32 0, i32 7), align 8
  %66 = load i32, ptr %5, align 4
  switch i32 %66, label %97 [
    i32 -1, label %67
    i32 5, label %86
    i32 4, label %86
    i32 3, label %86
    i32 2, label %86
  ]

67:                                               ; preds = %64
  %68 = load i64, ptr getelementptr inbounds (%struct._zend_phpdbg_globals, ptr @phpdbg_globals, i32 0, i32 53), align 8
  %69 = and i64 %68, 327680
  %70 = icmp ne i64 %69, 0
  br i1 %70, label %85, label %71

71:                                               ; preds = %67
  %72 = load i8, ptr %3, align 1
  %73 = trunc i8 %72 to i1
  br i1 %73, label %74, label %77

74:                                               ; preds = %71
  %75 = call i32 @phpdbg_call_register(ptr noundef %6)
  %76 = icmp eq i32 %75, -1
  br i1 %76, label %77, label %84

77:                                               ; preds = %74, %71
  %78 = load i8, ptr getelementptr inbounds (%struct._zend_phpdbg_globals, ptr @phpdbg_globals, i32 0, i32 41), align 8
  %79 = trunc i8 %78 to i1
  br i1 %79, label %80, label %83

80:                                               ; preds = %77
  %81 = load ptr, ptr getelementptr inbounds (%struct._zend_phpdbg_globals, ptr @phpdbg_globals, i32 0, i32 41, i32 3), align 8
  %82 = call i32 (ptr, ...) @phpdbg_output_err_buf(ptr noundef @.str.133, ptr noundef %81)
  br label %83

83:                                               ; preds = %80, %77
  br label %84

84:                                               ; preds = %83, %74
  br label %85

85:                                               ; preds = %84, %67
  br label %97

86:                                               ; preds = %64, %64, %64, %64
  call void @phpdbg_activate_err_buf(i1 noundef zeroext false)
  call void @phpdbg_free_err_buf()
  %87 = load i8, ptr getelementptr inbounds (%struct._zend_phpdbg_globals, ptr @phpdbg_globals, i32 0, i32 30), align 8
  %88 = trunc i8 %87 to i1
  br i1 %88, label %96, label %89

89:                                               ; preds = %86
  %90 = load i64, ptr getelementptr inbounds (%struct._zend_phpdbg_globals, ptr @phpdbg_globals, i32 0, i32 53), align 8
  %91 = and i64 %90, 327680
  %92 = icmp ne i64 %91, 0
  br i1 %92, label %96, label %93

93:                                               ; preds = %89
  %94 = load i32, ptr getelementptr inbounds (%struct._zend_phpdbg_globals, ptr @phpdbg_globals, i32 0, i32 39, i64 1), align 4
  %95 = call i32 (i32, i32, ptr, ...) @phpdbg_print(i32 noundef 1, i32 noundef %94, ptr noundef @.str.172)
  br label %96

96:                                               ; preds = %93, %89, %86
  br label %97

97:                                               ; preds = %96, %85, %64
  call void @phpdbg_activate_err_buf(i1 noundef zeroext false)
  call void @phpdbg_free_err_buf()
  br label %98

98:                                               ; preds = %97, %49
  call void @phpdbg_stack_free(ptr noundef %6)
  call void @phpdbg_destroy_input(ptr noundef %4)
  store i64 0, ptr getelementptr inbounds (%struct._zend_phpdbg_globals, ptr @phpdbg_globals, i32 0, i32 42), align 8
  store ptr null, ptr %4, align 8
  br label %12

99:                                               ; preds = %31, %18
  %100 = load ptr, ptr %4, align 8
  %101 = icmp ne ptr %100, null
  br i1 %101, label %102, label %103

102:                                              ; preds = %99
  call void @phpdbg_stack_free(ptr noundef %6)
  call void @phpdbg_destroy_input(ptr noundef %4)
  store i64 0, ptr getelementptr inbounds (%struct._zend_phpdbg_globals, ptr @phpdbg_globals, i32 0, i32 42), align 8
  br label %103

103:                                              ; preds = %102, %99
  %104 = load i8, ptr getelementptr inbounds (%struct._zend_phpdbg_globals, ptr @phpdbg_globals, i32 0, i32 30), align 8
  %105 = trunc i8 %104 to i1
  br i1 %105, label %106, label %107

106:                                              ; preds = %103
  call void @phpdbg_restore_frame()
  br label %107

107:                                              ; preds = %106, %103
  %108 = load i64, ptr getelementptr inbounds (%struct._zend_phpdbg_globals, ptr @phpdbg_globals, i32 0, i32 53), align 8
  %109 = and i64 %108, -134217729
  store i64 %109, ptr getelementptr inbounds (%struct._zend_phpdbg_globals, ptr @phpdbg_globals, i32 0, i32 53), align 8
  %110 = call i32 @phpdbg_print_changed_zvals()
  %111 = load i32, ptr %5, align 4
  ret i32 %111
}