; Function Attrs: nounwind uwtable
define hidden i32 @phpdbg_interactive(i1 noundef zeroext %0, ptr noundef %1) local_unnamed_addr #0 {
  %3 = alloca ptr, align 8
  %4 = alloca %struct._phpdbg_param, align 8
  %5 = alloca [1 x %struct.__jmp_buf_tag], align 16
  store ptr %1, ptr %3, align 8
  %6 = load i64, ptr getelementptr inbounds (%struct._zend_phpdbg_globals, ptr @phpdbg_globals, i64 0, i32 53), align 8
  %7 = or i64 %6, 134217728
  store i64 %7, ptr getelementptr inbounds (%struct._zend_phpdbg_globals, ptr @phpdbg_globals, i64 0, i32 53), align 8
  %8 = getelementptr inbounds i8, ptr %4, i64 8
  %9 = getelementptr inbounds i8, ptr %4, i64 72
  br label %10

10:                                               ; preds = %2, %52
  %11 = phi ptr [ %1, %2 ], [ null, %52 ]
  %.021 = phi i32 [ 0, %2 ], [ %.1, %52 ]
  %12 = load i64, ptr getelementptr inbounds (%struct._zend_phpdbg_globals, ptr @phpdbg_globals, i64 0, i32 53), align 8
  %13 = and i64 %12, 327680
  %.not = icmp eq i64 %13, 0
  br i1 %.not, label %15, label %14

14:                                               ; preds = %10
  call void @_zend_bailout(ptr noundef nonnull @.str.78, i32 noundef 1533) #26
  unreachable

15:                                               ; preds = %10
  %.not7 = icmp eq ptr %11, null
  br i1 %.not7, label %16, label %18

16:                                               ; preds = %15
  %17 = call ptr @phpdbg_read_input(ptr noundef null) #24
  store ptr %17, ptr %3, align 8
  %.not8 = icmp eq ptr %17, null
  br i1 %.not8, label %.thread, label %18

18:                                               ; preds = %15, %16
  %19 = phi ptr [ %11, %15 ], [ %17, %16 ]
  store i32 9, ptr %4, align 8
  call void @llvm.memset.p0.i64(ptr noundef nonnull align 8 dereferenceable(80) %8, i8 0, i64 80, i1 false)
  %20 = call i32 @phpdbg_do_parse(ptr noundef nonnull %4, ptr noundef nonnull %19) #24
  %21 = icmp slt i32 %20, 1
  br i1 %21, label %22, label %52

22:                                               ; preds = %18
  call void @phpdbg_activate_err_buf(i1 noundef zeroext true) #24
  %23 = load ptr, ptr getelementptr inbounds (%struct._zend_executor_globals, ptr @executor_globals, i64 0, i32 7), align 8
  store ptr %5, ptr getelementptr inbounds (%struct._zend_executor_globals, ptr @executor_globals, i64 0, i32 7), align 8
  %24 = call i32 @__sigsetjmp(ptr noundef nonnull %5, i32 noundef 0) #29
  %25 = icmp eq i32 %24, 0
  br i1 %25, label %26, label %28

26:                                               ; preds = %22
  %27 = call i32 @phpdbg_stack_execute(ptr noundef nonnull %4, i1 noundef zeroext %0) #24
  store ptr %23, ptr getelementptr inbounds (%struct._zend_executor_globals, ptr @executor_globals, i64 0, i32 7), align 8
  switch i32 %27, label %51 [
    i32 -1, label %29
    i32 5, label %42
    i32 4, label %42
    i32 3, label %42
    i32 2, label %42
  ]

28:                                               ; preds = %22
  store ptr %23, ptr getelementptr inbounds (%struct._zend_executor_globals, ptr @executor_globals, i64 0, i32 7), align 8
  call void @phpdbg_stack_free(ptr noundef nonnull %4) #24
  call void @_zend_bailout(ptr noundef nonnull @.str.78, i32 noundef 1550) #26
  unreachable

29:                                               ; preds = %26
  %30 = load i64, ptr getelementptr inbounds (%struct._zend_phpdbg_globals, ptr @phpdbg_globals, i64 0, i32 53), align 8
  %31 = and i64 %30, 327680
  %.not13 = icmp eq i64 %31, 0
  br i1 %.not13, label %32, label %51

32:                                               ; preds = %29
  br i1 %0, label %33, label %36

33:                                               ; preds = %32
  %.val = load i32, ptr %4, align 8
  %.val15 = load ptr, ptr %9, align 8
  %34 = call fastcc i32 @phpdbg_call_register(i32 %.val, ptr %.val15)
  %35 = icmp eq i32 %34, -1
  br i1 %35, label %36, label %51

36:                                               ; preds = %33, %32
  %37 = load i8, ptr getelementptr inbounds (%struct._zend_phpdbg_globals, ptr @phpdbg_globals, i64 0, i32 41), align 8
  %38 = and i8 %37, 1
  %.not14 = icmp eq i8 %38, 0
  br i1 %.not14, label %51, label %39

39:                                               ; preds = %36
  %40 = load ptr, ptr getelementptr inbounds (%struct._zend_phpdbg_globals, ptr @phpdbg_globals, i64 0, i32 41, i32 3), align 8
  %41 = call i32 (ptr, ...) @phpdbg_output_err_buf(ptr noundef nonnull @.str.133, ptr noundef %40) #24
  br label %51

42:                                               ; preds = %26, %26, %26, %26
  call void @phpdbg_activate_err_buf(i1 noundef zeroext false) #24
  call void @phpdbg_free_err_buf() #24
  %43 = load i8, ptr getelementptr inbounds (%struct._zend_phpdbg_globals, ptr @phpdbg_globals, i64 0, i32 30), align 8
  %44 = and i8 %43, 1
  %.not11 = icmp eq i8 %44, 0
  br i1 %.not11, label %45, label %51

45:                                               ; preds = %42
  %46 = load i64, ptr getelementptr inbounds (%struct._zend_phpdbg_globals, ptr @phpdbg_globals, i64 0, i32 53), align 8
  %47 = and i64 %46, 327680
  %.not12 = icmp eq i64 %47, 0
  br i1 %.not12, label %48, label %51

48:                                               ; preds = %45
  %49 = load i32, ptr getelementptr inbounds (%struct._zend_phpdbg_globals, ptr @phpdbg_globals, i64 0, i32 39, i64 1), align 4
  %50 = call i32 (i32, i32, ptr, ...) @phpdbg_print(i32 noundef 1, i32 noundef %49, ptr noundef nonnull @.str.172) #24
  br label %51

51:                                               ; preds = %42, %45, %48, %29, %36, %39, %33, %26
  call void @phpdbg_activate_err_buf(i1 noundef zeroext false) #24
  call void @phpdbg_free_err_buf() #24
  br label %52

52:                                               ; preds = %51, %18
  %.1 = phi i32 [ %27, %51 ], [ %.021, %18 ]
  call void @phpdbg_stack_free(ptr noundef nonnull %4) #24
  call void @phpdbg_destroy_input(ptr noundef nonnull %3) #24
  store i64 0, ptr getelementptr inbounds (%struct._zend_phpdbg_globals, ptr @phpdbg_globals, i64 0, i32 42), align 8
  store ptr null, ptr %3, align 8
  %53 = add i32 %.1, 1
  %54 = icmp ult i32 %53, 2
  br i1 %54, label %10, label %.thread

.thread:                                          ; preds = %16, %52
  %.020 = phi i32 [ %.1, %52 ], [ %.021, %16 ]
  %55 = load i8, ptr getelementptr inbounds (%struct._zend_phpdbg_globals, ptr @phpdbg_globals, i64 0, i32 30), align 8
  %56 = and i8 %55, 1
  %.not10 = icmp eq i8 %56, 0
  br i1 %.not10, label %58, label %57

57:                                               ; preds = %.thread
  call void @phpdbg_restore_frame() #24
  br label %58

58:                                               ; preds = %57, %.thread
  %59 = load i64, ptr getelementptr inbounds (%struct._zend_phpdbg_globals, ptr @phpdbg_globals, i64 0, i32 53), align 8
  %60 = and i64 %59, -134217729
  store i64 %60, ptr getelementptr inbounds (%struct._zend_phpdbg_globals, ptr @phpdbg_globals, i64 0, i32 53), align 8
  %61 = call i32 @phpdbg_print_changed_zvals() #24
  ret i32 %.020
}